target datalayout = "e-m:e-p270:32:32-p271:32:32-p272:64:64-i64:64-i128:128-f80:128-n8:16:32:64-S128"
target triple = "x86_64-pc-linux-gnu"

%union.SourceSpan = type { i64 }
%struct.Expr_ = type { ptr, %union.SourceSpan, i16, %union.anon.61 }
%union.anon.61 = type { %struct.ExprAnySwitch }
%struct.ExprAnySwitch = type { i8, %union.anon.63 }
%union.anon.63 = type { %struct.anon.64 }
%struct.anon.64 = type { ptr, %union.SourceSpan, ptr }
%struct.ExprIdentifier = type { %union.anon.76 }
%union.anon.76 = type { %struct.anon.77 }
%struct.anon.77 = type { ptr, ptr, i8 }
%struct.Decl_ = type { ptr, ptr, %union.SourceSpan, i64, %union.anon, i32, %union.anon.0, i64, ptr, ptr, ptr, %union.anon.1 }
%union.anon = type { ptr }
%union.anon.0 = type { i16 }
%union.anon.1 = type { %struct.FuncDecl }
%struct.FuncDecl = type { i32, [4 x i8], %struct.Signature_, i32, i32, %union.anon.8 }
%struct.Signature_ = type <{ %struct.CalleeAttributes, i16, i8, i32, i32, [4 x i8], ptr }>
%struct.CalleeAttributes = type { i8 }
%union.anon.8 = type { %struct.anon.9 }
%struct.anon.9 = type { i16, %union.anon.10 }
%union.anon.10 = type { ptr }
%struct.VarDecl_ = type { i32, i32, %union.anon.14, %union.anon.15 }
%union.anon.14 = type { ptr }
%union.anon.15 = type { %struct.anon.16 }
%struct.anon.16 = type { ptr, %union.SourceSpan }
%struct.ExprIdentifierRaw = type { ptr, i8, ptr }

@.str.26 = private unnamed_addr constant [29 x i8] c"Expected an identifier here.\00", align 1

; Function Attrs: nounwind uwtable
define dso_local ptr @sema_expr_resolve_access_child(ptr noundef %0, ptr noundef %1, ptr noundef %2) #0 {
  %4 = alloca ptr, align 8
  %5 = alloca ptr, align 8
  %6 = alloca ptr, align 8
  %7 = alloca %union.SourceSpan, align 8
  %8 = alloca ptr, align 8
  %9 = alloca ptr, align 8
  %10 = alloca ptr, align 8
  %11 = alloca ptr, align 8
  %12 = alloca ptr, align 8
  %13 = alloca ptr, align 8
  %14 = alloca ptr, align 8
  %15 = alloca ptr, align 8
  store ptr %0, ptr %9, align 8
  store ptr %1, ptr %10, align 8
  store ptr %2, ptr %11, align 8
  br label %16

16:                                               ; preds = %100, %3
  %17 = load ptr, ptr %10, align 8
  %18 = getelementptr inbounds %struct.Expr_, ptr %17, i32 0, i32 2
  %19 = load i16, ptr %18, align 8
  %20 = and i16 %19, 255
  %21 = zext i16 %20 to i32
  switch i32 %21, label %109 [
    i32 34, label %22
    i32 22, label %32
    i32 62, label %34
    i32 33, label %46
    i32 21, label %84
  ]

22:                                               ; preds = %16
  %23 = load ptr, ptr %10, align 8
  %24 = getelementptr inbounds %struct.Expr_, ptr %23, i32 0, i32 3
  %25 = getelementptr inbounds %struct.ExprIdentifier, ptr %24, i32 0, i32 0
  %26 = getelementptr inbounds %struct.anon.77, ptr %25, i32 0, i32 0
  %27 = load ptr, ptr %26, align 8
  %28 = icmp ne ptr %27, null
  br i1 %28, label %29, label %30

29:                                               ; preds = %22
  br label %110

30:                                               ; preds = %22
  %31 = load ptr, ptr %10, align 8
  store ptr %31, ptr %8, align 8
  br label %115

32:                                               ; preds = %16
  %33 = load ptr, ptr %10, align 8
  store ptr %33, ptr %8, align 8
  br label %115

34:                                               ; preds = %16
  %35 = load ptr, ptr %10, align 8
  %36 = getelementptr inbounds %struct.Expr_, ptr %35, i32 0, i32 3
  %37 = load ptr, ptr %36, align 8
  %38 = load i16, ptr %37, align 8
  %39 = lshr i16 %38, 3
  %40 = and i16 %39, 63
  %41 = zext i16 %40 to i32
  %42 = icmp eq i32 %41, 2
  br i1 %42, label %43, label %45

43:                                               ; preds = %34
  %44 = load ptr, ptr %10, align 8
  store ptr %44, ptr %8, align 8
  br label %115

45:                                               ; preds = %34
  br label %110

46:                                               ; preds = %16
  %47 = load ptr, ptr %9, align 8
  %48 = load ptr, ptr %10, align 8
  %49 = getelementptr inbounds %struct.Expr_, ptr %48, i32 0, i32 3
  %50 = getelementptr inbounds %struct.ExprIdentifierRaw, ptr %49, i32 0, i32 0
  %51 = load ptr, ptr %50, align 8
  %52 = load ptr, ptr %10, align 8
  %53 = getelementptr inbounds %struct.Expr_, ptr %52, i32 0, i32 1
  %54 = getelementptr inbounds %union.SourceSpan, ptr %53, i32 0, i32 0
  %55 = load i64, ptr %54, align 8
  %56 = call ptr @sema_resolve_symbol(ptr noundef %47, ptr noundef %51, ptr noundef null, i64 %55)
  store ptr %56, ptr %12, align 8
  %57 = load ptr, ptr %12, align 8
  store ptr %57, ptr %4, align 8
  %58 = load ptr, ptr %4, align 8
  %59 = icmp ne ptr %58, null
  br i1 %59, label %60, label %67

60:                                               ; preds = %46
  %61 = load ptr, ptr %4, align 8
  %62 = getelementptr inbounds %struct.Decl_, ptr %61, i32 0, i32 3
  %63 = load i64, ptr %62, align 8
  %64 = and i64 %63, 127
  %65 = trunc i64 %64 to i32
  %66 = icmp ne i32 %65, 0
  br label %67

67:                                               ; preds = %60, %46
  %68 = phi i1 [ true, %46 ], [ %66, %60 ]
  br i1 %68, label %70, label %69

69:                                               ; preds = %67
  store ptr null, ptr %8, align 8
  br label %115

70:                                               ; preds = %67
  %71 = load ptr, ptr %12, align 8
  %72 = getelementptr inbounds %struct.Decl_, ptr %71, i32 0, i32 11
  %73 = getelementptr inbounds %struct.VarDecl_, ptr %72, i32 0, i32 2
  %74 = load ptr, ptr %73, align 8
  %75 = call ptr @copy_expr_single(ptr noundef %74)
  store ptr %75, ptr %13, align 8
  %76 = load ptr, ptr %12, align 8
  %77 = getelementptr inbounds %struct.Decl_, ptr %76, i32 0, i32 11
  %78 = getelementptr inbounds %struct.VarDecl_, ptr %77, i32 0, i32 3
  %79 = getelementptr inbounds %struct.anon.16, ptr %78, i32 0, i32 0
  %80 = load ptr, ptr %79, align 8
  %81 = load ptr, ptr %13, align 8
  %82 = load ptr, ptr %11, align 8
  %83 = call ptr @sema_expr_resolve_access_child(ptr noundef %80, ptr noundef %81, ptr noundef %82)
  store ptr %83, ptr %8, align 8
  br label %115

84:                                               ; preds = %16
  store ptr null, ptr %14, align 8
  %85 = load ptr, ptr %9, align 8
  %86 = load ptr, ptr %10, align 8
  %87 = getelementptr inbounds %struct.Expr_, ptr %86, i32 0, i32 3
  %88 = load ptr, ptr %87, align 8
  %89 = load ptr, ptr %11, align 8
  %90 = icmp eq ptr %89, null
  %91 = call ptr @sema_ct_eval_expr(ptr noundef %85, i1 noundef zeroext false, ptr noundef %88, i1 noundef zeroext %90)
  store ptr %91, ptr %15, align 8
  %92 = load ptr, ptr %15, align 8
  %93 = icmp ne ptr %92, null
  br i1 %93, label %100, label %94

94:                                               ; preds = %84
  %95 = load ptr, ptr %11, align 8
  %96 = icmp ne ptr %95, null
  br i1 %96, label %97, label %99

97:                                               ; preds = %94
  %98 = load ptr, ptr %11, align 8
  store i8 1, ptr %98, align 1
  br label %99

99:                                               ; preds = %97, %94
  store ptr null, ptr %8, align 8
  br label %115

100:                                              ; preds = %84
  %101 = load ptr, ptr %10, align 8
  %102 = load ptr, ptr %15, align 8
  store ptr %101, ptr %5, align 8
  store ptr %102, ptr %6, align 8
  %103 = load ptr, ptr %5, align 8
  %104 = getelementptr inbounds %struct.Expr_, ptr %103, i32 0, i32 1
  call void @llvm.memcpy.p0.p0.i64(ptr align 8 %7, ptr align 8 %104, i64 8, i1 false)
  %105 = load ptr, ptr %5, align 8
  %106 = load ptr, ptr %6, align 8
  call void @llvm.memcpy.p0.p0.i64(ptr align 8 %105, ptr align 8 %106, i64 56, i1 false)
  %107 = load ptr, ptr %5, align 8
  %108 = getelementptr inbounds %struct.Expr_, ptr %107, i32 0, i32 1
  call void @llvm.memcpy.p0.p0.i64(ptr align 8 %108, ptr align 8 %7, i64 8, i1 false)
  br label %16

109:                                              ; preds = %16
  br label %110

110:                                              ; preds = %109, %45, %29
  %111 = load ptr, ptr %10, align 8
  %112 = getelementptr inbounds %struct.Expr_, ptr %111, i32 0, i32 1
  %113 = getelementptr inbounds %union.SourceSpan, ptr %112, i32 0, i32 0
  %114 = load i64, ptr %113, align 8
  call void (i64, ptr, ...) @sema_error_at(i64 %114, ptr noundef @.str.26)
  store ptr null, ptr %8, align 8
  br label %115

115:                                              ; preds = %110, %99, %70, %69, %43, %32, %30
  %116 = load ptr, ptr %8, align 8
  ret ptr %116
}