; Function Attrs: nounwind uwtable
define dso_local ptr @sema_expr_resolve_access_child(ptr noundef %0, ptr noundef %1, ptr noundef writeonly %2) local_unnamed_addr #0 {
  %4 = icmp eq ptr %2, null
  br label %tailrecurse

tailrecurse:                                      ; preds = %.critedge, %3
  %.tr = phi ptr [ %0, %3 ], [ %29, %.critedge ]
  %.tr38 = phi ptr [ %1, %3 ], [ %27, %.critedge ]
  %5 = getelementptr inbounds i8, ptr %.tr38, i64 16
  %6 = getelementptr inbounds i8, ptr %.tr38, i64 24
  %7 = getelementptr inbounds i8, ptr %.tr38, i64 8
  br label %8

8:                                                ; preds = %35, %tailrecurse
  %9 = load i16, ptr %5, align 8
  %trunc = trunc i16 %9 to i8
  switch i8 %trunc, label %.loopexit [
    i8 34, label %10
    i8 22, label %.loopexit40
    i8 62, label %12
    i8 33, label %17
    i8 21, label %30
  ]

10:                                               ; preds = %8
  %11 = load ptr, ptr %6, align 8
  %.not37 = icmp eq ptr %11, null
  br i1 %.not37, label %.loopexit40, label %.loopexit

12:                                               ; preds = %8
  %13 = load ptr, ptr %6, align 8
  %14 = load i16, ptr %13, align 8
  %15 = and i16 %14, 504
  %16 = icmp eq i16 %15, 16
  br i1 %16, label %.loopexit40, label %.loopexit

17:                                               ; preds = %8
  %18 = load ptr, ptr %6, align 8
  %19 = load i64, ptr %7, align 8
  %20 = tail call ptr @sema_resolve_symbol(ptr noundef %.tr, ptr noundef %18, ptr noundef null, i64 %19) #13
  %.not35 = icmp eq ptr %20, null
  br i1 %.not35, label %.critedge, label %21

21:                                               ; preds = %17
  %22 = getelementptr inbounds i8, ptr %20, i64 24
  %23 = load i64, ptr %22, align 8
  %24 = and i64 %23, 127
  %.not36 = icmp eq i64 %24, 0
  br i1 %.not36, label %.loopexit40, label %.critedge

.critedge:                                        ; preds = %17, %21
  %25 = getelementptr inbounds i8, ptr %20, i64 88
  %26 = load ptr, ptr %25, align 8
  %27 = tail call ptr @copy_expr_single(ptr noundef %26) #13
  %28 = getelementptr inbounds i8, ptr %20, i64 96
  %29 = load ptr, ptr %28, align 8
  br label %tailrecurse

30:                                               ; preds = %8
  %31 = load ptr, ptr %6, align 8
  %32 = tail call ptr @sema_ct_eval_expr(ptr noundef %.tr, i1 noundef zeroext false, ptr noundef %31, i1 noundef zeroext %4)
  %.not = icmp eq ptr %32, null
  br i1 %.not, label %33, label %35

33:                                               ; preds = %30
  br i1 %4, label %.loopexit40, label %34

34:                                               ; preds = %33
  store i8 1, ptr %2, align 1
  br label %.loopexit40

35:                                               ; preds = %30
  %.sroa.0.0.copyload = load i64, ptr %7, align 8
  tail call void @llvm.memcpy.p0.p0.i64(ptr noundef nonnull align 8 dereferenceable(56) %.tr38, ptr noundef nonnull align 8 dereferenceable(56) %32, i64 56, i1 false)
  store i64 %.sroa.0.0.copyload, ptr %7, align 8
  br label %8

.loopexit:                                        ; preds = %8, %12, %10
  %36 = load i64, ptr %7, align 8
  tail call void (i64, ptr, ...) @sema_error_at(i64 %36, ptr noundef nonnull @.str.26) #13
  br label %.loopexit40

.loopexit40:                                      ; preds = %21, %8, %33, %34, %12, %10, %.loopexit
  %.0 = phi ptr [ null, %.loopexit ], [ %.tr38, %10 ], [ %.tr38, %12 ], [ null, %34 ], [ null, %33 ], [ %.tr38, %8 ], [ null, %21 ]
  ret ptr %.0
}